target datalayout = "e-m:e-p270:32:32-p271:32:32-p272:64:64-i64:64-i128:128-f80:128-n8:16:32:64-S128"
target triple = "x86_64-pc-linux-gnu"

%struct.point_t = type { float, float }
%struct.dt_lut_t = type { ptr, ptr, ptr, ptr, ptr, ptr, ptr, ptr, ptr, ptr, ptr, ptr, ptr, ptr, ptr, ptr, ptr, %struct.image_t, %struct.image_t, ptr, ptr, ptr, ptr, ptr }
%struct.image_t = type { ptr, ptr, ptr, i32, i32, ptr, float, i32, i32, float, [4 x %struct.point_t], ptr, i32 }

@.str.52 = private unnamed_addr constant [9 x i8] c"file-set\00", align 1

; Function Attrs: nounwind uwtable
define internal void @reference_mode_changed_callback(ptr noundef %0, ptr noundef %1) #0 {
  %3 = alloca ptr, align 8
  %4 = alloca ptr, align 8
  %5 = alloca ptr, align 8
  %6 = alloca i32, align 4
  store ptr %0, ptr %3, align 8, !tbaa !141
  store ptr %1, ptr %4, align 8, !tbaa !62
  call void @llvm.lifetime.start.p0(i64 8, ptr %5) #15
  %7 = load ptr, ptr %4, align 8, !tbaa !62
  store ptr %7, ptr %5, align 8, !tbaa !14
  call void @llvm.lifetime.start.p0(i64 4, ptr %6) #15
  %8 = load ptr, ptr %3, align 8, !tbaa !141
  %9 = call i32 @gtk_combo_box_get_active(ptr noundef %8)
  store i32 %9, ptr %6, align 4, !tbaa !7
  %10 = load i32, ptr %6, align 4, !tbaa !7
  %11 = icmp eq i32 %10, 0
  br i1 %11, label %12, label %30

12:                                               ; preds = %2
  %13 = load ptr, ptr %5, align 8, !tbaa !14
  %14 = getelementptr inbounds nuw %struct.dt_lut_t, ptr %13, i32 0, i32 5
  %15 = load ptr, ptr %14, align 8, !tbaa !89
  call void @gtk_widget_set_no_show_all(ptr noundef %15, i32 noundef 0)
  %16 = load ptr, ptr %5, align 8, !tbaa !14
  %17 = getelementptr inbounds nuw %struct.dt_lut_t, ptr %16, i32 0, i32 5
  %18 = load ptr, ptr %17, align 8, !tbaa !89
  call void @gtk_widget_show_all(ptr noundef %18)
  %19 = load ptr, ptr %5, align 8, !tbaa !14
  %20 = getelementptr inbounds nuw %struct.dt_lut_t, ptr %19, i32 0, i32 6
  %21 = load ptr, ptr %20, align 8, !tbaa !90
  call void @gtk_widget_hide(ptr noundef %21)
  %22 = load ptr, ptr %5, align 8, !tbaa !14
  %23 = getelementptr inbounds nuw %struct.dt_lut_t, ptr %22, i32 0, i32 18
  %24 = getelementptr inbounds nuw %struct.image_t, ptr %23, i32 0, i32 0
  %25 = load ptr, ptr %24, align 8, !tbaa !84
  call void @gtk_widget_hide(ptr noundef %25)
  %26 = load ptr, ptr %5, align 8, !tbaa !14
  %27 = getelementptr inbounds nuw %struct.dt_lut_t, ptr %26, i32 0, i32 3
  %28 = load ptr, ptr %27, align 8, !tbaa !41
  %29 = load ptr, ptr %4, align 8, !tbaa !62
  call void (ptr, ptr, ...) @g_signal_emit_by_name(ptr noundef %28, ptr noundef @.str.52, ptr noundef %29)
  br label %52

30:                                               ; preds = %2
  %31 = load ptr, ptr %5, align 8, !tbaa !14
  %32 = getelementptr inbounds nuw %struct.dt_lut_t, ptr %31, i32 0, i32 6
  %33 = load ptr, ptr %32, align 8, !tbaa !90
  call void @gtk_widget_set_no_show_all(ptr noundef %33, i32 noundef 0)
  %34 = load ptr, ptr %5, align 8, !tbaa !14
  %35 = getelementptr inbounds nuw %struct.dt_lut_t, ptr %34, i32 0, i32 18
  %36 = getelementptr inbounds nuw %struct.image_t, ptr %35, i32 0, i32 0
  %37 = load ptr, ptr %36, align 8, !tbaa !84
  call void @gtk_widget_set_no_show_all(ptr noundef %37, i32 noundef 0)
  %38 = load ptr, ptr %5, align 8, !tbaa !14
  %39 = getelementptr inbounds nuw %struct.dt_lut_t, ptr %38, i32 0, i32 6
  %40 = load ptr, ptr %39, align 8, !tbaa !90
  call void @gtk_widget_show_all(ptr noundef %40)
  %41 = load ptr, ptr %5, align 8, !tbaa !14
  %42 = getelementptr inbounds nuw %struct.dt_lut_t, ptr %41, i32 0, i32 18
  %43 = getelementptr inbounds nuw %struct.image_t, ptr %42, i32 0, i32 0
  %44 = load ptr, ptr %43, align 8, !tbaa !84
  call void @gtk_widget_show_all(ptr noundef %44)
  %45 = load ptr, ptr %5, align 8, !tbaa !14
  %46 = getelementptr inbounds nuw %struct.dt_lut_t, ptr %45, i32 0, i32 5
  %47 = load ptr, ptr %46, align 8, !tbaa !89
  call void @gtk_widget_hide(ptr noundef %47)
  %48 = load ptr, ptr %5, align 8, !tbaa !14
  %49 = getelementptr inbounds nuw %struct.dt_lut_t, ptr %48, i32 0, i32 4
  %50 = load ptr, ptr %49, align 8, !tbaa !42
  %51 = load ptr, ptr %4, align 8, !tbaa !62
  call void (ptr, ptr, ...) @g_signal_emit_by_name(ptr noundef %50, ptr noundef @.str.52, ptr noundef %51)
  br label %52

52:                                               ; preds = %30, %12
  call void @llvm.lifetime.end.p0(i64 4, ptr %6) #15
  call void @llvm.lifetime.end.p0(i64 8, ptr %5) #15
  ret void
}