; Function Attrs: nounwind uwtable
define internal void @reference_mode_changed_callback(ptr noundef %0, ptr noundef %1) #0 {
  %3 = tail call i32 @gtk_combo_box_get_active(ptr noundef %0) #24
  %4 = icmp eq i32 %3, 0
  br i1 %4, label %5, label %11

5:                                                ; preds = %2
  %6 = getelementptr inbounds nuw i8, ptr %1, i64 40
  %7 = load ptr, ptr %6, align 8, !tbaa !48
  tail call void @gtk_widget_set_no_show_all(ptr noundef %7, i32 noundef 0) #24
  %8 = load ptr, ptr %6, align 8, !tbaa !48
  tail call void @gtk_widget_show_all(ptr noundef %8) #24
  %9 = getelementptr inbounds nuw i8, ptr %1, i64 48
  %10 = load ptr, ptr %9, align 8, !tbaa !49
  tail call void @gtk_widget_hide(ptr noundef %10) #24
  br label %18

11:                                               ; preds = %2
  %12 = getelementptr inbounds nuw i8, ptr %1, i64 48
  %13 = load ptr, ptr %12, align 8, !tbaa !49
  tail call void @gtk_widget_set_no_show_all(ptr noundef %13, i32 noundef 0) #24
  %14 = getelementptr inbounds nuw i8, ptr %1, i64 240
  %15 = load ptr, ptr %14, align 8, !tbaa !44
  tail call void @gtk_widget_set_no_show_all(ptr noundef %15, i32 noundef 0) #24
  %16 = load ptr, ptr %12, align 8, !tbaa !49
  tail call void @gtk_widget_show_all(ptr noundef %16) #24
  %17 = load ptr, ptr %14, align 8, !tbaa !44
  tail call void @gtk_widget_show_all(ptr noundef %17) #24
  br label %18

18:                                               ; preds = %11, %5
  %.sink18 = phi i64 [ 40, %11 ], [ 240, %5 ]
  %.sink = phi i64 [ 32, %11 ], [ 24, %5 ]
  %19 = getelementptr inbounds nuw i8, ptr %1, i64 %.sink18
  %20 = load ptr, ptr %19, align 8, !tbaa !108
  tail call void @gtk_widget_hide(ptr noundef %20) #24
  %21 = getelementptr inbounds nuw i8, ptr %1, i64 %.sink
  %22 = load ptr, ptr %21, align 8, !tbaa !108
  tail call void (ptr, ptr, ...) @g_signal_emit_by_name(ptr noundef %22, ptr noundef nonnull @.str.52, ptr noundef %1) #24
  ret void
}